target datalayout = "e-m:e-p270:32:32-p271:32:32-p272:64:64-i64:64-i128:128-f80:128-n8:16:32:64-S128"
target triple = "x86_64-pc-linux-gnu"

; Function Attrs: nounwind uwtable
define internal void @setup_7x7(i32 noundef %0, ptr noundef %1, ptr noundef %2, i32 noundef %3, i32 noundef %4, i32 noundef %5, i32 noundef %6, i32 noundef %7, i32 noundef %8) #0 {
  %10 = alloca i32, align 4
  %11 = alloca ptr, align 8
  %12 = alloca ptr, align 8
  %13 = alloca i32, align 4
  %14 = alloca i32, align 4
  %15 = alloca i32, align 4
  %16 = alloca i32, align 4
  %17 = alloca i32, align 4
  %18 = alloca i32, align 4
  %19 = alloca i32, align 4
  %20 = alloca i32, align 4
  %21 = alloca i32, align 4
  store i32 %0, ptr %10, align 4, !tbaa !11
  store ptr %1, ptr %11, align 8, !tbaa !89
  store ptr %2, ptr %12, align 8, !tbaa !9
  store i32 %3, ptr %13, align 4, !tbaa !11
  store i32 %4, ptr %14, align 4, !tbaa !11
  store i32 %5, ptr %15, align 4, !tbaa !11
  store i32 %6, ptr %16, align 4, !tbaa !11
  store i32 %7, ptr %17, align 4, !tbaa !11
  store i32 %8, ptr %18, align 4, !tbaa !11
  call void @llvm.lifetime.start.p0(i64 4, ptr %19) #10
  store i32 0, ptr %19, align 4, !tbaa !11
  br label %22

22:                                               ; preds = %109, %9
  %23 = load i32, ptr %19, align 4, !tbaa !11
  %24 = icmp slt i32 %23, 49
  br i1 %24, label %25, label %112

25:                                               ; preds = %22
  call void @llvm.lifetime.start.p0(i64 4, ptr %20) #10
  %26 = load i32, ptr %14, align 4, !tbaa !11
  %27 = load i32, ptr %19, align 4, !tbaa !11
  %28 = srem i32 %27, 7
  %29 = sub nsw i32 %28, 3
  %30 = add nsw i32 %26, %29
  %31 = icmp sge i32 %30, 0
  br i1 %31, label %32, label %38

32:                                               ; preds = %25
  %33 = load i32, ptr %14, align 4, !tbaa !11
  %34 = load i32, ptr %19, align 4, !tbaa !11
  %35 = srem i32 %34, 7
  %36 = sub nsw i32 %35, 3
  %37 = add nsw i32 %33, %36
  br label %45

38:                                               ; preds = %25
  %39 = load i32, ptr %14, align 4, !tbaa !11
  %40 = load i32, ptr %19, align 4, !tbaa !11
  %41 = srem i32 %40, 7
  %42 = sub nsw i32 %41, 3
  %43 = add nsw i32 %39, %42
  %44 = sub nsw i32 0, %43
  br label %45

45:                                               ; preds = %38, %32
  %46 = phi i32 [ %37, %32 ], [ %44, %38 ]
  store i32 %46, ptr %20, align 4, !tbaa !11
  call void @llvm.lifetime.start.p0(i64 4, ptr %21) #10
  %47 = load i32, ptr %16, align 4, !tbaa !11
  %48 = load i32, ptr %19, align 4, !tbaa !11
  %49 = sdiv i32 %48, 7
  %50 = add nsw i32 %47, %49
  %51 = sub nsw i32 %50, 3
  %52 = icmp sge i32 %51, 0
  br i1 %52, label %53, label %59

53:                                               ; preds = %45
  %54 = load i32, ptr %16, align 4, !tbaa !11
  %55 = load i32, ptr %19, align 4, !tbaa !11
  %56 = sdiv i32 %55, 7
  %57 = add nsw i32 %54, %56
  %58 = sub nsw i32 %57, 3
  br label %66

59:                                               ; preds = %45
  %60 = load i32, ptr %16, align 4, !tbaa !11
  %61 = load i32, ptr %19, align 4, !tbaa !11
  %62 = sdiv i32 %61, 7
  %63 = add nsw i32 %60, %62
  %64 = sub nsw i32 %63, 3
  %65 = sub nsw i32 0, %64
  br label %66

66:                                               ; preds = %59, %53
  %67 = phi i32 [ %58, %53 ], [ %65, %59 ]
  store i32 %67, ptr %21, align 4, !tbaa !11
  %68 = load i32, ptr %20, align 4, !tbaa !11
  %69 = load i32, ptr %15, align 4, !tbaa !11
  %70 = icmp sge i32 %68, %69
  br i1 %70, label %71, label %77

71:                                               ; preds = %66
  %72 = load i32, ptr %15, align 4, !tbaa !11
  %73 = mul nsw i32 2, %72
  %74 = sub nsw i32 %73, 1
  %75 = load i32, ptr %20, align 4, !tbaa !11
  %76 = sub nsw i32 %74, %75
  br label %79

77:                                               ; preds = %66
  %78 = load i32, ptr %20, align 4, !tbaa !11
  br label %79

79:                                               ; preds = %77, %71
  %80 = phi i32 [ %76, %71 ], [ %78, %77 ]
  store i32 %80, ptr %20, align 4, !tbaa !11
  %81 = load i32, ptr %21, align 4, !tbaa !11
  %82 = load i32, ptr %17, align 4, !tbaa !11
  %83 = icmp sge i32 %81, %82
  br i1 %83, label %84, label %90

84:                                               ; preds = %79
  %85 = load i32, ptr %17, align 4, !tbaa !11
  %86 = mul nsw i32 2, %85
  %87 = sub nsw i32 %86, 1
  %88 = load i32, ptr %21, align 4, !tbaa !11
  %89 = sub nsw i32 %87, %88
  br label %92

90:                                               ; preds = %79
  %91 = load i32, ptr %21, align 4, !tbaa !11
  br label %92

92:                                               ; preds = %90, %84
  %93 = phi i32 [ %89, %84 ], [ %91, %90 ]
  store i32 %93, ptr %21, align 4, !tbaa !11
  %94 = load ptr, ptr %12, align 8, !tbaa !9
  %95 = load i32, ptr %20, align 4, !tbaa !11
  %96 = load i32, ptr %18, align 4, !tbaa !11
  %97 = mul nsw i32 %95, %96
  %98 = sext i32 %97 to i64
  %99 = getelementptr inbounds i8, ptr %94, i64 %98
  %100 = load i32, ptr %21, align 4, !tbaa !11
  %101 = load i32, ptr %13, align 4, !tbaa !11
  %102 = mul nsw i32 %100, %101
  %103 = sext i32 %102 to i64
  %104 = getelementptr inbounds i8, ptr %99, i64 %103
  %105 = load ptr, ptr %11, align 8, !tbaa !89
  %106 = load i32, ptr %19, align 4, !tbaa !11
  %107 = sext i32 %106 to i64
  %108 = getelementptr inbounds ptr, ptr %105, i64 %107
  store ptr %104, ptr %108, align 8, !tbaa !9
  call void @llvm.lifetime.end.p0(i64 4, ptr %21) #10
  call void @llvm.lifetime.end.p0(i64 4, ptr %20) #10
  br label %109

109:                                              ; preds = %92
  %110 = load i32, ptr %19, align 4, !tbaa !11
  %111 = add nsw i32 %110, 1
  store i32 %111, ptr %19, align 4, !tbaa !11
  br label %22, !llvm.loop !107

112:                                              ; preds = %22
  call void @llvm.lifetime.end.p0(i64 4, ptr %19) #10
  ret void
}